; Function Attrs: mustprogress nounwind uwtable
define hidden void @_ZN10ValueStack5applyERK13GrowableArrayIP11InstructionEP12ValueVisitor(ptr nocapture noundef nonnull readonly align 8 dereferenceable(24) %0, ptr noundef %1) local_unnamed_addr #0 align 2 {
  %3 = load i32, ptr %0, align 8
  %4 = icmp sgt i32 %3, 0
  br i1 %4, label %.lr.ph, label %._crit_edge

.lr.ph:                                           ; preds = %2
  %5 = getelementptr inbounds i8, ptr %0, i64 8
  br label %6

6:                                                ; preds = %.lr.ph, %26
  %7 = phi i32 [ %3, %.lr.ph ], [ %27, %26 ]
  %.012 = phi i32 [ 0, %.lr.ph ], [ %28, %26 ]
  %8 = load ptr, ptr %5, align 8
  %9 = sext i32 %.012 to i64
  %10 = getelementptr inbounds ptr, ptr %8, i64 %9
  %11 = load ptr, ptr %10, align 8
  %.not = icmp eq ptr %11, null
  br i1 %.not, label %26, label %12

12:                                               ; preds = %6
  %13 = getelementptr inbounds i8, ptr %11, i64 24
  %14 = load ptr, ptr %13, align 8
  %15 = getelementptr inbounds i8, ptr %14, i64 12
  %16 = load i32, ptr %15, align 4
  %17 = icmp eq i32 %16, 8
  br i1 %17, label %26, label %18

18:                                               ; preds = %12
  %19 = load ptr, ptr %1, align 8
  %20 = load ptr, ptr %19, align 8
  tail call void %20(ptr noundef nonnull align 8 dereferenceable(8) %1, ptr noundef nonnull %10) #8
  %21 = load ptr, ptr %13, align 8
  %22 = getelementptr inbounds i8, ptr %21, i64 8
  %23 = load i32, ptr %22, align 8
  %24 = icmp eq i32 %23, 2
  %25 = zext i1 %24 to i32
  %spec.select = add nsw i32 %.012, %25
  %.pre = load i32, ptr %0, align 8
  br label %26

26:                                               ; preds = %18, %6, %12
  %27 = phi i32 [ %7, %12 ], [ %7, %6 ], [ %.pre, %18 ]
  %.1 = phi i32 [ %.012, %12 ], [ %.012, %6 ], [ %spec.select, %18 ]
  %28 = add nsw i32 %.1, 1
  %29 = icmp slt i32 %28, %27
  br i1 %29, label %6, label %._crit_edge, !llvm.loop !17

._crit_edge:                                      ; preds = %26, %2
  ret void
}